target datalayout = "e-m:e-p270:32:32-p271:32:32-p272:64:64-i64:64-i128:128-f80:128-n8:16:32:64-S128"
target triple = "x86_64-pc-linux-gnu"

%struct.CodecMime = type { [32 x i8], i32 }
%struct.AVRational = type { i32, i32 }
%struct.ID3v2EncContext = type { i32, i64, i32 }
%struct.AVFormatContext = type { ptr, ptr, ptr, ptr, ptr, i32, i32, ptr, i32, ptr, i32, ptr, ptr, i64, i64, i64, i32, i32, i32, i64, i64, ptr, i32, i32, ptr, i32, i32, i32, i32, ptr, i64, i32, i32, %struct.AVIOInterruptCB, i32, i32, i32, i32, i64, i32, i32, i32, i32, i32, i32, i32, i32, i32, i32, i32, i32, i64, i32, i32, i32, i32, i32, ptr, ptr, ptr, ptr, i32, ptr, ptr, ptr, ptr, i32, ptr, ptr, i64, ptr, ptr, ptr, i64 }
%struct.AVIOInterruptCB = type { ptr, ptr }
%struct.AVDictionaryEntry = type { ptr, ptr }
%struct.AVPacket = type { ptr, i64, i64, ptr, i32, i32, i32, ptr, i32, i64, i64, ptr, ptr, %struct.AVRational }
%struct.AVStream = type { ptr, i32, i32, ptr, ptr, %struct.AVRational, i64, i64, i64, i32, i32, %struct.AVRational, ptr, %struct.AVRational, %struct.AVPacket, i32, %struct.AVRational, i32 }
%struct.AVCodecParameters = type { i32, i32, i32, ptr, i32, ptr, i32, i32, i64, i32, i32, i32, i32, i32, i32, %struct.AVRational, %struct.AVRational, i32, i32, i32, i32, i32, i32, i32, %struct.AVChannelLayout, i32, i32, i32, i32, i32, i32 }
%struct.AVChannelLayout = type { i32, i32, %union.anon, ptr }
%union.anon = type { i64 }

@ff_id3v2_mime_tags = external constant [0 x %struct.CodecMime], align 4
@.str = private unnamed_addr constant [1 x i8] zeroinitializer, align 1
@.str.1 = private unnamed_addr constant [71 x i8] c"No mimetype is known for stream %d, cannot write an attached picture.\0A\00", align 1
@.str.2 = private unnamed_addr constant [8 x i8] c"comment\00", align 1
@ff_id3v2_picture_types = external constant [21 x ptr], align 16
@.str.3 = private unnamed_addr constant [6 x i8] c"title\00", align 1

; Function Attrs: nounwind uwtable
define internal void @id3v2_put_size(ptr noundef %0, i32 noundef %1) #0 {
  %3 = alloca ptr, align 8
  %4 = alloca i32, align 4
  store ptr %0, ptr %3, align 8, !tbaa !9
  store i32 %1, ptr %4, align 4, !tbaa !11
  %5 = load ptr, ptr %3, align 8, !tbaa !9
  %6 = load i32, ptr %4, align 4, !tbaa !11
  %7 = ashr i32 %6, 21
  %8 = and i32 %7, 127
  call void @avio_w8(ptr noundef %5, i32 noundef %8)
  %9 = load ptr, ptr %3, align 8, !tbaa !9
  %10 = load i32, ptr %4, align 4, !tbaa !11
  %11 = ashr i32 %10, 14
  %12 = and i32 %11, 127
  call void @avio_w8(ptr noundef %9, i32 noundef %12)
  %13 = load ptr, ptr %3, align 8, !tbaa !9
  %14 = load i32, ptr %4, align 4, !tbaa !11
  %15 = ashr i32 %14, 7
  %16 = and i32 %15, 127
  call void @avio_w8(ptr noundef %13, i32 noundef %16)
  %17 = load ptr, ptr %3, align 8, !tbaa !9
  %18 = load i32, ptr %4, align 4, !tbaa !11
  %19 = and i32 %18, 127
  call void @avio_w8(ptr noundef %17, i32 noundef %19)
  ret void
}

; Function Attrs: nounwind uwtable
define internal void @id3v2_encode_string(ptr noundef %0, ptr noundef %1, i32 noundef %2) #0 {
  %4 = alloca ptr, align 8
  %5 = alloca ptr, align 8
  %6 = alloca i32, align 4
  %7 = alloca ptr, align 8
  store ptr %0, ptr %4, align 8, !tbaa !9
  store ptr %1, ptr %5, align 8, !tbaa !13
  store i32 %2, ptr %6, align 4, !tbaa !11
  call void @llvm.lifetime.start.p0(i64 8, ptr %7) #11
  %8 = load i32, ptr %6, align 4, !tbaa !11
  %9 = icmp eq i32 %8, 1
  br i1 %9, label %10, label %12

10:                                               ; preds = %3
  %11 = load ptr, ptr %4, align 8, !tbaa !9
  call void @avio_wl16(ptr noundef %11, i32 noundef 65279)
  store ptr @avio_put_str16le, ptr %7, align 8, !tbaa !82
  br label %13

12:                                               ; preds = %3
  store ptr @avio_put_str, ptr %7, align 8, !tbaa !82
  br label %13

13:                                               ; preds = %12, %10
  %14 = load ptr, ptr %7, align 8, !tbaa !82
  %15 = load ptr, ptr %4, align 8, !tbaa !9
  %16 = load ptr, ptr %5, align 8, !tbaa !13
  %17 = call i32 %14(ptr noundef %15, ptr noundef %16)
  call void @llvm.lifetime.end.p0(i64 8, ptr %7) #11
  ret void
}

; Function Attrs: nounwind uwtable
define internal i32 @string_is_ascii(ptr noundef %0) #0 {
  %2 = alloca ptr, align 8
  store ptr %0, ptr %2, align 8, !tbaa !13
  br label %3

3:                                                ; preds = %15, %1
  %4 = load ptr, ptr %2, align 8, !tbaa !13
  %5 = load i8, ptr %4, align 1, !tbaa !18
  %6 = zext i8 %5 to i32
  %7 = icmp ne i32 %6, 0
  br i1 %7, label %8, label %13

8:                                                ; preds = %3
  %9 = load ptr, ptr %2, align 8, !tbaa !13
  %10 = load i8, ptr %9, align 1, !tbaa !18
  %11 = zext i8 %10 to i32
  %12 = icmp slt i32 %11, 128
  br label %13

13:                                               ; preds = %8, %3
  %14 = phi i1 [ false, %3 ], [ %12, %8 ]
  br i1 %14, label %15, label %18

15:                                               ; preds = %13
  %16 = load ptr, ptr %2, align 8, !tbaa !13
  %17 = getelementptr inbounds nuw i8, ptr %16, i32 1
  store ptr %17, ptr %2, align 8, !tbaa !13
  br label %3, !llvm.loop !81

18:                                               ; preds = %13
  %19 = load ptr, ptr %2, align 8, !tbaa !13
  %20 = load i8, ptr %19, align 1, !tbaa !18
  %21 = icmp ne i8 %20, 0
  %22 = xor i1 %21, true
  %23 = zext i1 %22 to i32
  ret i32 %23
}

; Function Attrs: nounwind uwtable
define i32 @ff_id3v2_write_apic(ptr noundef %0, ptr noundef %1, ptr noundef %2) #0 {
  %4 = alloca i32, align 4
  %5 = alloca ptr, align 8
  %6 = alloca ptr, align 8
  %7 = alloca ptr, align 8
  %8 = alloca ptr, align 8
  %9 = alloca ptr, align 8
  %10 = alloca ptr, align 8
  %11 = alloca ptr, align 8
  %12 = alloca ptr, align 8
  %13 = alloca ptr, align 8
  %14 = alloca ptr, align 8
  %15 = alloca i32, align 4
  %16 = alloca i32, align 4
  %17 = alloca i32, align 4
  %18 = alloca i32, align 4
  %19 = alloca i32, align 4
  %20 = alloca i32, align 4
  store ptr %0, ptr %5, align 8, !tbaa !20
  store ptr %1, ptr %6, align 8, !tbaa !4
  store ptr %2, ptr %7, align 8, !tbaa !56
  call void @llvm.lifetime.start.p0(i64 8, ptr %8) #11
  %21 = load ptr, ptr %5, align 8, !tbaa !20
  %22 = getelementptr inbounds nuw %struct.AVFormatContext, ptr %21, i32 0, i32 7
  %23 = load ptr, ptr %22, align 8, !tbaa !58
  %24 = load ptr, ptr %7, align 8, !tbaa !56
  %25 = getelementptr inbounds nuw %struct.AVPacket, ptr %24, i32 0, i32 5
  %26 = load i32, ptr %25, align 4, !tbaa !59
  %27 = sext i32 %26 to i64
  %28 = getelementptr inbounds ptr, ptr %23, i64 %27
  %29 = load ptr, ptr %28, align 8, !tbaa !63
  store ptr %29, ptr %8, align 8, !tbaa !63
  call void @llvm.lifetime.start.p0(i64 8, ptr %9) #11
  call void @llvm.lifetime.start.p0(i64 8, ptr %10) #11
  call void @llvm.lifetime.start.p0(i64 8, ptr %11) #11
  call void @llvm.lifetime.start.p0(i64 8, ptr %12) #11
  store ptr @ff_id3v2_mime_tags, ptr %12, align 8, !tbaa !65
  call void @llvm.lifetime.start.p0(i64 8, ptr %13) #11
  store ptr null, ptr %13, align 8, !tbaa !13
  call void @llvm.lifetime.start.p0(i64 8, ptr %14) #11
  store ptr @.str, ptr %14, align 8, !tbaa !13
  call void @llvm.lifetime.start.p0(i64 4, ptr %15) #11
  %30 = load ptr, ptr %6, align 8, !tbaa !4
  %31 = getelementptr inbounds nuw %struct.ID3v2EncContext, ptr %30, i32 0, i32 0
  %32 = load i32, ptr %31, align 8, !tbaa !15
  %33 = icmp eq i32 %32, 3
  %34 = select i1 %33, i32 1, i32 3
  store i32 %34, ptr %15, align 4, !tbaa !11
  call void @llvm.lifetime.start.p0(i64 4, ptr %16) #11
  call void @llvm.lifetime.start.p0(i64 4, ptr %17) #11
  call void @llvm.lifetime.start.p0(i64 4, ptr %18) #11
  store i32 0, ptr %18, align 4, !tbaa !11
  call void @llvm.lifetime.start.p0(i64 4, ptr %19) #11
  br label %35

35:                                               ; preds = %54, %3
  %36 = load ptr, ptr %12, align 8, !tbaa !65
  %37 = getelementptr inbounds nuw %struct.CodecMime, ptr %36, i32 0, i32 1
  %38 = load i32, ptr %37, align 4, !tbaa !67
  %39 = icmp ne i32 %38, 0
  br i1 %39, label %40, label %57

40:                                               ; preds = %35
  %41 = load ptr, ptr %12, align 8, !tbaa !65
  %42 = getelementptr inbounds nuw %struct.CodecMime, ptr %41, i32 0, i32 1
  %43 = load i32, ptr %42, align 4, !tbaa !67
  %44 = load ptr, ptr %8, align 8, !tbaa !63
  %45 = getelementptr inbounds nuw %struct.AVStream, ptr %44, i32 0, i32 3
  %46 = load ptr, ptr %45, align 8, !tbaa !69
  %47 = getelementptr inbounds nuw %struct.AVCodecParameters, ptr %46, i32 0, i32 1
  %48 = load i32, ptr %47, align 4, !tbaa !72
  %49 = icmp eq i32 %43, %48
  br i1 %49, label %50, label %54

50:                                               ; preds = %40
  %51 = load ptr, ptr %12, align 8, !tbaa !65
  %52 = getelementptr inbounds nuw %struct.CodecMime, ptr %51, i32 0, i32 0
  %53 = getelementptr inbounds [32 x i8], ptr %52, i64 0, i64 0
  store ptr %53, ptr %13, align 8, !tbaa !13
  br label %57

54:                                               ; preds = %40
  %55 = load ptr, ptr %12, align 8, !tbaa !65
  %56 = getelementptr inbounds nuw %struct.CodecMime, ptr %55, i32 1
  store ptr %56, ptr %12, align 8, !tbaa !65
  br label %35, !llvm.loop !75

57:                                               ; preds = %50, %35
  %58 = load ptr, ptr %13, align 8, !tbaa !13
  %59 = icmp ne ptr %58, null
  br i1 %59, label %65, label %60

60:                                               ; preds = %57
  %61 = load ptr, ptr %5, align 8, !tbaa !20
  %62 = load ptr, ptr %8, align 8, !tbaa !63
  %63 = getelementptr inbounds nuw %struct.AVStream, ptr %62, i32 0, i32 1
  %64 = load i32, ptr %63, align 8, !tbaa !76
  call void (ptr, i32, ptr, ...) @av_log(ptr noundef %61, i32 noundef 16, ptr noundef @.str.1, i32 noundef %64)
  store i32 -22, ptr %4, align 4
  store i32 1, ptr %20, align 4
  br label %170

65:                                               ; preds = %57
  %66 = load ptr, ptr %8, align 8, !tbaa !63
  %67 = getelementptr inbounds nuw %struct.AVStream, ptr %66, i32 0, i32 12
  %68 = load ptr, ptr %67, align 8, !tbaa !77
  %69 = call ptr @av_dict_get(ptr noundef %68, ptr noundef @.str.2, ptr noundef null, i32 noundef 0)
  store ptr %69, ptr %9, align 8, !tbaa !40
  store i32 0, ptr %16, align 4, !tbaa !11
  br label %70

70:                                               ; preds = %92, %65
  %71 = load ptr, ptr %9, align 8, !tbaa !40
  %72 = icmp ne ptr %71, null
  br i1 %72, label %73, label %77

73:                                               ; preds = %70
  %74 = load i32, ptr %16, align 4, !tbaa !11
  %75 = sext i32 %74 to i64
  %76 = icmp ult i64 %75, 21
  br label %77

77:                                               ; preds = %73, %70
  %78 = phi i1 [ false, %70 ], [ %76, %73 ]
  br i1 %78, label %79, label %95

79:                                               ; preds = %77
  %80 = load ptr, ptr %9, align 8, !tbaa !40
  %81 = getelementptr inbounds nuw %struct.AVDictionaryEntry, ptr %80, i32 0, i32 1
  %82 = load ptr, ptr %81, align 8, !tbaa !47
  %83 = load i32, ptr %16, align 4, !tbaa !11
  %84 = sext i32 %83 to i64
  %85 = getelementptr inbounds [21 x ptr], ptr @ff_id3v2_picture_types, i64 0, i64 %84
  %86 = load ptr, ptr %85, align 8, !tbaa !13
  %87 = call i32 @av_strcasecmp(ptr noundef %82, ptr noundef %86)
  %88 = icmp ne i32 %87, 0
  br i1 %88, label %91, label %89

89:                                               ; preds = %79
  %90 = load i32, ptr %16, align 4, !tbaa !11
  store i32 %90, ptr %18, align 4, !tbaa !11
  br label %95

91:                                               ; preds = %79
  br label %92

92:                                               ; preds = %91
  %93 = load i32, ptr %16, align 4, !tbaa !11
  %94 = add nsw i32 %93, 1
  store i32 %94, ptr %16, align 4, !tbaa !11
  br label %70, !llvm.loop !78

95:                                               ; preds = %89, %77
  %96 = load ptr, ptr %8, align 8, !tbaa !63
  %97 = getelementptr inbounds nuw %struct.AVStream, ptr %96, i32 0, i32 12
  %98 = load ptr, ptr %97, align 8, !tbaa !77
  %99 = call ptr @av_dict_get(ptr noundef %98, ptr noundef @.str.3, ptr noundef null, i32 noundef 0)
  store ptr %99, ptr %9, align 8, !tbaa !40
  %100 = icmp ne ptr %99, null
  br i1 %100, label %101, label %105

101:                                              ; preds = %95
  %102 = load ptr, ptr %9, align 8, !tbaa !40
  %103 = getelementptr inbounds nuw %struct.AVDictionaryEntry, ptr %102, i32 0, i32 1
  %104 = load ptr, ptr %103, align 8, !tbaa !47
  store ptr %104, ptr %14, align 8, !tbaa !13
  br label %105

105:                                              ; preds = %101, %95
  %106 = load i32, ptr %15, align 4, !tbaa !11
  %107 = icmp eq i32 %106, 1
  br i1 %107, label %108, label %113

108:                                              ; preds = %105
  %109 = load ptr, ptr %14, align 8, !tbaa !13
  %110 = call i32 @string_is_ascii(ptr noundef %109)
  %111 = icmp ne i32 %110, 0
  br i1 %111, label %112, label %113

112:                                              ; preds = %108
  store i32 0, ptr %15, align 4, !tbaa !11
  br label %113

113:                                              ; preds = %112, %108, %105
  %114 = call i32 @avio_open_dyn_buf(ptr noundef %10)
  store i32 %114, ptr %19, align 4, !tbaa !11
  %115 = icmp slt i32 %114, 0
  br i1 %115, label %116, label %118

116:                                              ; preds = %113
  %117 = load i32, ptr %19, align 4, !tbaa !11
  store i32 %117, ptr %4, align 4
  store i32 1, ptr %20, align 4
  br label %170

118:                                              ; preds = %113
  %119 = load ptr, ptr %10, align 8, !tbaa !9
  %120 = load i32, ptr %15, align 4, !tbaa !11
  call void @avio_w8(ptr noundef %119, i32 noundef %120)
  %121 = load ptr, ptr %10, align 8, !tbaa !9
  %122 = load ptr, ptr %13, align 8, !tbaa !13
  %123 = call i32 @avio_put_str(ptr noundef %121, ptr noundef %122)
  %124 = load ptr, ptr %10, align 8, !tbaa !9
  %125 = load i32, ptr %18, align 4, !tbaa !11
  call void @avio_w8(ptr noundef %124, i32 noundef %125)
  %126 = load ptr, ptr %10, align 8, !tbaa !9
  %127 = load ptr, ptr %14, align 8, !tbaa !13
  %128 = load i32, ptr %15, align 4, !tbaa !11
  call void @id3v2_encode_string(ptr noundef %126, ptr noundef %127, i32 noundef %128)
  %129 = load ptr, ptr %10, align 8, !tbaa !9
  %130 = load ptr, ptr %7, align 8, !tbaa !56
  %131 = getelementptr inbounds nuw %struct.AVPacket, ptr %130, i32 0, i32 3
  %132 = load ptr, ptr %131, align 8, !tbaa !79
  %133 = load ptr, ptr %7, align 8, !tbaa !56
  %134 = getelementptr inbounds nuw %struct.AVPacket, ptr %133, i32 0, i32 4
  %135 = load i32, ptr %134, align 8, !tbaa !80
  call void @avio_write(ptr noundef %129, ptr noundef %132, i32 noundef %135)
  %136 = load ptr, ptr %10, align 8, !tbaa !9
  %137 = call i32 @avio_get_dyn_buf(ptr noundef %136, ptr noundef %11)
  store i32 %137, ptr %17, align 4, !tbaa !11
  %138 = load ptr, ptr %5, align 8, !tbaa !20
  %139 = getelementptr inbounds nuw %struct.AVFormatContext, ptr %138, i32 0, i32 4
  %140 = load ptr, ptr %139, align 8, !tbaa !22
  call void @avio_wb32(ptr noundef %140, i32 noundef 1095780675)
  %141 = load ptr, ptr %6, align 8, !tbaa !4
  %142 = getelementptr inbounds nuw %struct.ID3v2EncContext, ptr %141, i32 0, i32 0
  %143 = load i32, ptr %142, align 8, !tbaa !15
  %144 = icmp eq i32 %143, 3
  br i1 %144, label %145, label %150

145:                                              ; preds = %118
  %146 = load ptr, ptr %5, align 8, !tbaa !20
  %147 = getelementptr inbounds nuw %struct.AVFormatContext, ptr %146, i32 0, i32 4
  %148 = load ptr, ptr %147, align 8, !tbaa !22
  %149 = load i32, ptr %17, align 4, !tbaa !11
  call void @avio_wb32(ptr noundef %148, i32 noundef %149)
  br label %155

150:                                              ; preds = %118
  %151 = load ptr, ptr %5, align 8, !tbaa !20
  %152 = getelementptr inbounds nuw %struct.AVFormatContext, ptr %151, i32 0, i32 4
  %153 = load ptr, ptr %152, align 8, !tbaa !22
  %154 = load i32, ptr %17, align 4, !tbaa !11
  call void @id3v2_put_size(ptr noundef %153, i32 noundef %154)
  br label %155

155:                                              ; preds = %150, %145
  %156 = load ptr, ptr %5, align 8, !tbaa !20
  %157 = getelementptr inbounds nuw %struct.AVFormatContext, ptr %156, i32 0, i32 4
  %158 = load ptr, ptr %157, align 8, !tbaa !22
  call void @avio_wb16(ptr noundef %158, i32 noundef 0)
  %159 = load ptr, ptr %5, align 8, !tbaa !20
  %160 = getelementptr inbounds nuw %struct.AVFormatContext, ptr %159, i32 0, i32 4
  %161 = load ptr, ptr %160, align 8, !tbaa !22
  %162 = load ptr, ptr %11, align 8, !tbaa !13
  %163 = load i32, ptr %17, align 4, !tbaa !11
  call void @avio_write(ptr noundef %161, ptr noundef %162, i32 noundef %163)
  call void @ffio_free_dyn_buf(ptr noundef %10)
  %164 = load i32, ptr %17, align 4, !tbaa !11
  %165 = add nsw i32 %164, 10
  %166 = load ptr, ptr %6, align 8, !tbaa !4
  %167 = getelementptr inbounds nuw %struct.ID3v2EncContext, ptr %166, i32 0, i32 2
  %168 = load i32, ptr %167, align 8, !tbaa !43
  %169 = add nsw i32 %168, %165
  store i32 %169, ptr %167, align 8, !tbaa !43
  store i32 0, ptr %4, align 4
  store i32 1, ptr %20, align 4
  br label %170

170:                                              ; preds = %155, %116, %60
  call void @llvm.lifetime.end.p0(i64 4, ptr %19) #11
  call void @llvm.lifetime.end.p0(i64 4, ptr %18) #11
  call void @llvm.lifetime.end.p0(i64 4, ptr %17) #11
  call void @llvm.lifetime.end.p0(i64 4, ptr %16) #11
  call void @llvm.lifetime.end.p0(i64 4, ptr %15) #11
  call void @llvm.lifetime.end.p0(i64 8, ptr %14) #11
  call void @llvm.lifetime.end.p0(i64 8, ptr %13) #11
  call void @llvm.lifetime.end.p0(i64 8, ptr %12) #11
  call void @llvm.lifetime.end.p0(i64 8, ptr %11) #11
  call void @llvm.lifetime.end.p0(i64 8, ptr %10) #11
  call void @llvm.lifetime.end.p0(i64 8, ptr %9) #11
  call void @llvm.lifetime.end.p0(i64 8, ptr %8) #11
  %171 = load i32, ptr %4, align 4
  ret i32 %171
}