; Function Attrs: nounwind uwtable
define range(i32 -2147483648, 1) i32 @ff_id3v2_write_apic(ptr noundef %0, ptr noundef captures(none) %1, ptr noundef readonly captures(none) %2) local_unnamed_addr #0 {
  %4 = alloca ptr, align 8
  %5 = alloca ptr, align 8
  %6 = getelementptr inbounds nuw i8, ptr %0, i64 48
  %7 = load ptr, ptr %6, align 8, !tbaa !51
  %8 = getelementptr inbounds nuw i8, ptr %2, i64 36
  %9 = load i32, ptr %8, align 4, !tbaa !52
  %10 = sext i32 %9 to i64
  %11 = getelementptr inbounds ptr, ptr %7, i64 %10
  %12 = load ptr, ptr %11, align 8, !tbaa !56
  call void @llvm.lifetime.start.p0(i64 8, ptr nonnull %4) #9
  call void @llvm.lifetime.start.p0(i64 8, ptr nonnull %5) #9
  %13 = load i32, ptr %1, align 8, !tbaa !4
  %14 = icmp eq i32 %13, 3
  %15 = load i32, ptr getelementptr inbounds nuw (i8, ptr @ff_id3v2_mime_tags, i64 32), align 4, !tbaa !58
  %.not60 = icmp eq i32 %15, 0
  br i1 %.not60, label %._crit_edge, label %.lr.ph

.lr.ph:                                           ; preds = %3
  %16 = getelementptr inbounds nuw i8, ptr %12, i64 16
  %17 = load ptr, ptr %16, align 8, !tbaa !60
  %18 = getelementptr inbounds nuw i8, ptr %17, i64 4
  %19 = load i32, ptr %18, align 4, !tbaa !63
  br label %20

20:                                               ; preds = %.lr.ph, %23
  %21 = phi i32 [ %15, %.lr.ph ], [ %26, %23 ]
  %.04661 = phi ptr [ @ff_id3v2_mime_tags, %.lr.ph ], [ %24, %23 ]
  %22 = icmp eq i32 %21, %19
  br i1 %22, label %29, label %23

23:                                               ; preds = %20
  %24 = getelementptr inbounds nuw i8, ptr %.04661, i64 36
  %25 = getelementptr inbounds nuw i8, ptr %.04661, i64 68
  %26 = load i32, ptr %25, align 4, !tbaa !58
  %.not = icmp eq i32 %26, 0
  br i1 %.not, label %._crit_edge, label %20, !llvm.loop !66

._crit_edge:                                      ; preds = %23, %3
  %27 = getelementptr inbounds nuw i8, ptr %12, i64 8
  %28 = load i32, ptr %27, align 8, !tbaa !67
  tail call void (ptr, i32, ptr, ...) @av_log(ptr noundef %0, i32 noundef 16, ptr noundef nonnull @.str.1, i32 noundef %28) #9
  br label %90

29:                                               ; preds = %20
  %30 = getelementptr inbounds nuw i8, ptr %12, i64 80
  %31 = load ptr, ptr %30, align 8, !tbaa !68
  %32 = tail call ptr @av_dict_get(ptr noundef %31, ptr noundef nonnull @.str.2, ptr noundef null, i32 noundef 0) #9
  %.not69 = icmp eq ptr %32, null
  br i1 %.not69, label %._crit_edge65, label %.lr.ph64

.lr.ph64:                                         ; preds = %29
  %33 = getelementptr inbounds nuw i8, ptr %32, i64 8
  br label %34

34:                                               ; preds = %.lr.ph64, %39
  %indvars.iv = phi i64 [ 0, %.lr.ph64 ], [ %indvars.iv.next, %39 ]
  %35 = load ptr, ptr %33, align 8, !tbaa !45
  %36 = getelementptr inbounds nuw [21 x ptr], ptr @ff_id3v2_picture_types, i64 0, i64 %indvars.iv
  %37 = load ptr, ptr %36, align 8, !tbaa !33
  %38 = tail call i32 @av_strcasecmp(ptr noundef %35, ptr noundef %37) #9
  %.not53 = icmp eq i32 %38, 0
  br i1 %.not53, label %._crit_edge65.loopexit.split.loop.exit, label %39

39:                                               ; preds = %34
  %indvars.iv.next = add nuw nsw i64 %indvars.iv, 1
  %exitcond.not = icmp eq i64 %indvars.iv.next, 21
  br i1 %exitcond.not, label %._crit_edge65, label %34, !llvm.loop !69

._crit_edge65.loopexit.split.loop.exit:           ; preds = %34
  %40 = trunc nuw nsw i64 %indvars.iv to i32
  br label %._crit_edge65

._crit_edge65:                                    ; preds = %39, %._crit_edge65.loopexit.split.loop.exit, %29
  %.041 = phi i32 [ 0, %29 ], [ %40, %._crit_edge65.loopexit.split.loop.exit ], [ 0, %39 ]
  %41 = load ptr, ptr %30, align 8, !tbaa !68
  %42 = tail call ptr @av_dict_get(ptr noundef %41, ptr noundef nonnull @.str.3, ptr noundef null, i32 noundef 0) #9
  %.not54 = icmp eq ptr %42, null
  br i1 %.not54, label %46, label %43

43:                                               ; preds = %._crit_edge65
  %44 = getelementptr inbounds nuw i8, ptr %42, i64 8
  %45 = load ptr, ptr %44, align 8, !tbaa !45
  br label %46

46:                                               ; preds = %43, %._crit_edge65
  %.044 = phi ptr [ %45, %43 ], [ @.str, %._crit_edge65 ]
  br i1 %14, label %.preheader, label %49

.preheader:                                       ; preds = %46, %.preheader
  %.0.i = phi ptr [ %48, %.preheader ], [ %.044, %46 ]
  %47 = load i8, ptr %.0.i, align 1, !tbaa !10
  %or.cond.i = icmp sgt i8 %47, 0
  %48 = getelementptr inbounds nuw i8, ptr %.0.i, i64 1
  br i1 %or.cond.i, label %.preheader, label %string_is_ascii.exit, !llvm.loop !70

string_is_ascii.exit:                             ; preds = %.preheader
  %.not5.i.not = icmp ne i8 %47, 0
  %spec.select = zext i1 %.not5.i.not to i32
  br label %49

49:                                               ; preds = %string_is_ascii.exit, %46
  %.043 = phi i32 [ 3, %46 ], [ %spec.select, %string_is_ascii.exit ]
  %50 = call i32 @avio_open_dyn_buf(ptr noundef nonnull %4) #9
  %51 = icmp slt i32 %50, 0
  br i1 %51, label %90, label %52

52:                                               ; preds = %49
  %53 = load ptr, ptr %4, align 8, !tbaa !29
  call void @avio_w8(ptr noundef %53, i32 noundef %.043) #9
  %54 = load ptr, ptr %4, align 8, !tbaa !29
  %55 = call i32 @avio_put_str(ptr noundef %54, ptr noundef nonnull %.04661) #9
  %56 = load ptr, ptr %4, align 8, !tbaa !29
  call void @avio_w8(ptr noundef %56, i32 noundef %.041) #9
  %57 = load ptr, ptr %4, align 8, !tbaa !29
  %58 = icmp eq i32 %.043, 1
  br i1 %58, label %59, label %id3v2_encode_string.exit

59:                                               ; preds = %52
  call void @avio_wl16(ptr noundef %57, i32 noundef 65279) #9
  br label %id3v2_encode_string.exit

id3v2_encode_string.exit:                         ; preds = %52, %59
  %.0.i56 = phi ptr [ @avio_put_str16le, %59 ], [ @avio_put_str, %52 ]
  %60 = call i32 %.0.i56(ptr noundef %57, ptr noundef %.044) #9, !callees !71
  %61 = load ptr, ptr %4, align 8, !tbaa !29
  %62 = getelementptr inbounds nuw i8, ptr %2, i64 24
  %63 = load ptr, ptr %62, align 8, !tbaa !72
  %64 = getelementptr inbounds nuw i8, ptr %2, i64 32
  %65 = load i32, ptr %64, align 8, !tbaa !73
  call void @avio_write(ptr noundef %61, ptr noundef %63, i32 noundef %65) #9
  %66 = load ptr, ptr %4, align 8, !tbaa !29
  %67 = call i32 @avio_get_dyn_buf(ptr noundef %66, ptr noundef nonnull %5) #9
  %68 = getelementptr inbounds nuw i8, ptr %0, i64 32
  %69 = load ptr, ptr %68, align 8, !tbaa !12
  call void @avio_wb32(ptr noundef %69, i32 noundef 1095780675) #9
  %70 = load i32, ptr %1, align 8, !tbaa !4
  %71 = icmp eq i32 %70, 3
  %72 = load ptr, ptr %68, align 8, !tbaa !12
  br i1 %71, label %73, label %74

73:                                               ; preds = %id3v2_encode_string.exit
  call void @avio_wb32(ptr noundef %72, i32 noundef %67) #9
  br label %82

74:                                               ; preds = %id3v2_encode_string.exit
  %75 = lshr i32 %67, 21
  %76 = and i32 %75, 127
  call void @avio_w8(ptr noundef %72, i32 noundef %76) #9
  %77 = lshr i32 %67, 14
  %78 = and i32 %77, 127
  call void @avio_w8(ptr noundef %72, i32 noundef %78) #9
  %79 = lshr i32 %67, 7
  %80 = and i32 %79, 127
  call void @avio_w8(ptr noundef %72, i32 noundef %80) #9
  %81 = and i32 %67, 127
  call void @avio_w8(ptr noundef %72, i32 noundef %81) #9
  br label %82

82:                                               ; preds = %74, %73
  %83 = load ptr, ptr %68, align 8, !tbaa !12
  call void @avio_wb16(ptr noundef %83, i32 noundef 0) #9
  %84 = load ptr, ptr %68, align 8, !tbaa !12
  %85 = load ptr, ptr %5, align 8, !tbaa !33
  call void @avio_write(ptr noundef %84, ptr noundef %85, i32 noundef %67) #9
  call void @ffio_free_dyn_buf(ptr noundef nonnull %4) #9
  %86 = add nsw i32 %67, 10
  %87 = getelementptr inbounds nuw i8, ptr %1, i64 16
  %88 = load i32, ptr %87, align 8, !tbaa !32
  %89 = add nsw i32 %86, %88
  store i32 %89, ptr %87, align 8, !tbaa !32
  br label %90

90:                                               ; preds = %49, %82, %._crit_edge
  %.0 = phi i32 [ 0, %82 ], [ -22, %._crit_edge ], [ %50, %49 ]
  call void @llvm.lifetime.end.p0(i64 8, ptr nonnull %5) #9
  call void @llvm.lifetime.end.p0(i64 8, ptr nonnull %4) #9
  ret i32 %.0
}